; Function Attrs: nounwind uwtable
define internal void @keyboardHandleEnter(ptr readnone captures(none) %0, ptr readnone captures(none) %1, i32 noundef %2, ptr noundef %3, ptr readnone captures(none) %4) #0 {
  %.not = icmp eq ptr %3, null
  br i1 %.not, label %15, label %6

6:                                                ; preds = %5
  %7 = load ptr, ptr getelementptr inbounds nuw (i8, ptr @_glfw, i64 137504), align 8, !tbaa !180
  %8 = tail call ptr %7(ptr noundef nonnull %3) #20
  %.not7 = icmp eq ptr %8, getelementptr inbounds nuw (i8, ptr @_glfw, i64 134088)
  br i1 %.not7, label %9, label %15

9:                                                ; preds = %6
  %10 = load ptr, ptr getelementptr inbounds nuw (i8, ptr @_glfw, i64 137488), align 8, !tbaa !181
  %11 = tail call ptr %10(ptr noundef nonnull %3) #20
  %12 = getelementptr inbounds nuw i8, ptr %11, i64 904
  %13 = load ptr, ptr %12, align 8, !tbaa !135
  %.not8 = icmp eq ptr %3, %13
  br i1 %.not8, label %14, label %15

14:                                               ; preds = %9
  store i32 %2, ptr getelementptr inbounds nuw (i8, ptr @_glfw, i64 134132), align 4, !tbaa !251
  store ptr %11, ptr getelementptr inbounds nuw (i8, ptr @_glfw, i64 137368), align 8, !tbaa !239
  tail call void @_glfwInputWindowFocus(ptr noundef nonnull %11, i32 noundef 1) #20
  br label %15

15:                                               ; preds = %14, %9, %6, %5
  ret void
}